; Function Attrs: mustprogress nounwind uwtable
define internal fastcc void @_ZN9grpc_core12_GLOBAL__N_112MethodConfigD2Ev(ptr nocapture noundef nonnull readonly align 8 dereferenceable(24) %this) unnamed_addr #5 align 2 personality ptr @__gxx_personality_v0 {
entry:
  %0 = load ptr, ptr %this, align 8
  %_M_finish.i = getelementptr inbounds i8, ptr %this, i64 8
  %1 = load ptr, ptr %_M_finish.i, align 8
  %cmp.not3.i.i.i.i = icmp eq ptr %0, %1
  br i1 %cmp.not3.i.i.i.i, label %invoke.cont.i, label %for.body.i.i.i.i

for.body.i.i.i.i:                                 ; preds = %entry, %_ZSt8_DestroyIN9grpc_core12_GLOBAL__N_112MethodConfig4NameEEvPT_.exit.i.i.i.i
  %__first.addr.04.i.i.i.i = phi ptr [ %incdec.ptr.i.i.i.i, %_ZSt8_DestroyIN9grpc_core12_GLOBAL__N_112MethodConfig4NameEEvPT_.exit.i.i.i.i ], [ %0, %entry ]
  %_M_engaged.i.i.i.i.i.i.i.i.i.i = getelementptr inbounds i8, ptr %__first.addr.04.i.i.i.i, i64 72
  %2 = load i8, ptr %_M_engaged.i.i.i.i.i.i.i.i.i.i, align 8
  %3 = and i8 %2, 1
  %tobool.not.i.i.i.i.i.i.i.i.i.i = icmp eq i8 %3, 0
  br i1 %tobool.not.i.i.i.i.i.i.i.i.i.i, label %_ZNSt8optionalINSt7__cxx1112basic_stringIcSt11char_traitsIcESaIcEEEED2Ev.exit.i.i.i.i.i.i, label %if.then.i.i.i.i.i.i.i.i.i.i

if.then.i.i.i.i.i.i.i.i.i.i:                      ; preds = %for.body.i.i.i.i
  %method.i.i.i.i.i.i = getelementptr inbounds i8, ptr %__first.addr.04.i.i.i.i, i64 40
  store i8 0, ptr %_M_engaged.i.i.i.i.i.i.i.i.i.i, align 8
  tail call void @_ZNSt7__cxx1112basic_stringIcSt11char_traitsIcESaIcEED1Ev(ptr noundef nonnull align 8 dereferenceable(32) %method.i.i.i.i.i.i) #19
  br label %_ZNSt8optionalINSt7__cxx1112basic_stringIcSt11char_traitsIcESaIcEEEED2Ev.exit.i.i.i.i.i.i

_ZNSt8optionalINSt7__cxx1112basic_stringIcSt11char_traitsIcESaIcEEEED2Ev.exit.i.i.i.i.i.i: ; preds = %if.then.i.i.i.i.i.i.i.i.i.i, %for.body.i.i.i.i
  %_M_engaged.i.i.i.i1.i.i.i.i.i.i = getelementptr inbounds i8, ptr %__first.addr.04.i.i.i.i, i64 32
  %4 = load i8, ptr %_M_engaged.i.i.i.i1.i.i.i.i.i.i, align 8
  %5 = and i8 %4, 1
  %tobool.not.i.i.i.i2.i.i.i.i.i.i = icmp eq i8 %5, 0
  br i1 %tobool.not.i.i.i.i2.i.i.i.i.i.i, label %_ZSt8_DestroyIN9grpc_core12_GLOBAL__N_112MethodConfig4NameEEvPT_.exit.i.i.i.i, label %if.then.i.i.i.i3.i.i.i.i.i.i

if.then.i.i.i.i3.i.i.i.i.i.i:                     ; preds = %_ZNSt8optionalINSt7__cxx1112basic_stringIcSt11char_traitsIcESaIcEEEED2Ev.exit.i.i.i.i.i.i
  store i8 0, ptr %_M_engaged.i.i.i.i1.i.i.i.i.i.i, align 8
  tail call void @_ZNSt7__cxx1112basic_stringIcSt11char_traitsIcESaIcEED1Ev(ptr noundef nonnull align 8 dereferenceable(32) %__first.addr.04.i.i.i.i) #19
  br label %_ZSt8_DestroyIN9grpc_core12_GLOBAL__N_112MethodConfig4NameEEvPT_.exit.i.i.i.i

_ZSt8_DestroyIN9grpc_core12_GLOBAL__N_112MethodConfig4NameEEvPT_.exit.i.i.i.i: ; preds = %if.then.i.i.i.i3.i.i.i.i.i.i, %_ZNSt8optionalINSt7__cxx1112basic_stringIcSt11char_traitsIcESaIcEEEED2Ev.exit.i.i.i.i.i.i
  %incdec.ptr.i.i.i.i = getelementptr inbounds i8, ptr %__first.addr.04.i.i.i.i, i64 80
  %cmp.not.i.i.i.i = icmp eq ptr %incdec.ptr.i.i.i.i, %1
  br i1 %cmp.not.i.i.i.i, label %invoke.contthread-pre-split.i, label %for.body.i.i.i.i, !llvm.loop !27

invoke.contthread-pre-split.i:                    ; preds = %_ZSt8_DestroyIN9grpc_core12_GLOBAL__N_112MethodConfig4NameEEvPT_.exit.i.i.i.i
  %this.val.pr.i = load ptr, ptr %this, align 8
  br label %invoke.cont.i

invoke.cont.i:                                    ; preds = %invoke.contthread-pre-split.i, %entry
  %this.val.i = phi ptr [ %this.val.pr.i, %invoke.contthread-pre-split.i ], [ %0, %entry ]
  %tobool.not.i.i.i = icmp eq ptr %this.val.i, null
  br i1 %tobool.not.i.i.i, label %_ZNSt6vectorIN9grpc_core12_GLOBAL__N_112MethodConfig4NameESaIS3_EED2Ev.exit, label %if.then.i.i.i

if.then.i.i.i:                                    ; preds = %invoke.cont.i
  tail call void @_ZdlPv(ptr noundef nonnull %this.val.i) #21
  br label %_ZNSt6vectorIN9grpc_core12_GLOBAL__N_112MethodConfig4NameESaIS3_EED2Ev.exit

_ZNSt6vectorIN9grpc_core12_GLOBAL__N_112MethodConfig4NameESaIS3_EED2Ev.exit: ; preds = %invoke.cont.i, %if.then.i.i.i
  ret void
}